target datalayout = "e-m:e-p270:32:32-p271:32:32-p272:64:64-i64:64-i128:128-f80:128-n8:16:32:64-S128"
target triple = "x86_64-pc-linux-gnu"

%"class.OpenSubdiv::v3_6_0::Bfr::Parameterization" = type { i8, i8, i16 }
%"class.OpenSubdiv::v3_6_0::Bfr::Tessellation" = type { %"class.OpenSubdiv::v3_6_0::Bfr::Parameterization", i8, i16, i32, i32, i32, i32, i32, i32, [2 x i32], ptr, [4 x i32] }

; Function Attrs: mustprogress nounwind uwtable
define void @_ZN10OpenSubdiv6v3_6_03Bfr12Tessellation26TransformFacetCoordIndicesEPiPKii(ptr noundef nonnull align 8 dereferenceable(64) %0, ptr noundef %1, ptr noundef %2, i32 noundef %3) #1 align 2 {
  %5 = alloca ptr, align 8
  %6 = alloca ptr, align 8
  %7 = alloca ptr, align 8
  %8 = alloca i32, align 4
  %9 = alloca i32, align 4
  %10 = alloca i32, align 4
  %11 = alloca ptr, align 8
  store ptr %0, ptr %5, align 8
  store ptr %1, ptr %6, align 8
  store ptr %2, ptr %7, align 8
  store i32 %3, ptr %8, align 4
  %12 = load ptr, ptr %5, align 8
  store i32 0, ptr %9, align 4
  br label %13

13:                                               ; preds = %59, %4
  %14 = load i32, ptr %9, align 4
  %15 = getelementptr inbounds nuw %"class.OpenSubdiv::v3_6_0::Bfr::Tessellation", ptr %12, i32 0, i32 8
  %16 = load i32, ptr %15, align 4
  %17 = icmp slt i32 %14, %16
  br i1 %17, label %18, label %67

18:                                               ; preds = %13
  store i32 0, ptr %10, align 4
  br label %19

19:                                               ; preds = %55, %18
  %20 = load i32, ptr %10, align 4
  %21 = getelementptr inbounds nuw %"class.OpenSubdiv::v3_6_0::Bfr::Tessellation", ptr %12, i32 0, i32 2
  %22 = load i16, ptr %21, align 2
  %23 = sext i16 %22 to i32
  %24 = icmp slt i32 %20, %23
  br i1 %24, label %25, label %58

25:                                               ; preds = %19
  %26 = load ptr, ptr %6, align 8
  %27 = load i32, ptr %10, align 4
  %28 = sext i32 %27 to i64
  %29 = getelementptr inbounds i32, ptr %26, i64 %28
  store ptr %29, ptr %11, align 8
  %30 = load ptr, ptr %11, align 8
  %31 = load i32, ptr %30, align 4
  %32 = icmp sge i32 %31, 0
  br i1 %32, label %33, label %54

33:                                               ; preds = %25
  %34 = load ptr, ptr %11, align 8
  %35 = load i32, ptr %34, align 4
  %36 = getelementptr inbounds nuw %"class.OpenSubdiv::v3_6_0::Bfr::Tessellation", ptr %12, i32 0, i32 6
  %37 = load i32, ptr %36, align 4
  %38 = icmp slt i32 %35, %37
  br i1 %38, label %39, label %46

39:                                               ; preds = %33
  %40 = load ptr, ptr %7, align 8
  %41 = load ptr, ptr %11, align 8
  %42 = load i32, ptr %41, align 4
  %43 = sext i32 %42 to i64
  %44 = getelementptr inbounds i32, ptr %40, i64 %43
  %45 = load i32, ptr %44, align 4
  br label %51

46:                                               ; preds = %33
  %47 = load ptr, ptr %11, align 8
  %48 = load i32, ptr %47, align 4
  %49 = load i32, ptr %8, align 4
  %50 = add nsw i32 %48, %49
  br label %51

51:                                               ; preds = %46, %39
  %52 = phi i32 [ %45, %39 ], [ %50, %46 ]
  %53 = load ptr, ptr %11, align 8
  store i32 %52, ptr %53, align 4
  br label %54

54:                                               ; preds = %51, %25
  br label %55

55:                                               ; preds = %54
  %56 = load i32, ptr %10, align 4
  %57 = add nsw i32 %56, 1
  store i32 %57, ptr %10, align 4
  br label %19, !llvm.loop !45

58:                                               ; preds = %19
  br label %59

59:                                               ; preds = %58
  %60 = load i32, ptr %9, align 4
  %61 = add nsw i32 %60, 1
  store i32 %61, ptr %9, align 4
  %62 = getelementptr inbounds nuw %"class.OpenSubdiv::v3_6_0::Bfr::Tessellation", ptr %12, i32 0, i32 3
  %63 = load i32, ptr %62, align 8
  %64 = load ptr, ptr %6, align 8
  %65 = sext i32 %63 to i64
  %66 = getelementptr inbounds i32, ptr %64, i64 %65
  store ptr %66, ptr %6, align 8
  br label %13, !llvm.loop !46

67:                                               ; preds = %13
  ret void
}