; Function Attrs: mustprogress nofree norecurse nosync nounwind memory(argmem: readwrite) uwtable
define void @_ZN10OpenSubdiv6v3_6_03Bfr12Tessellation26TransformFacetCoordIndicesEPiPKii(ptr nocapture noundef nonnull readonly align 8 dereferenceable(64) %0, ptr nocapture noundef %1, ptr nocapture noundef readonly %2, i32 noundef %3) local_unnamed_addr #17 align 2 {
  %5 = getelementptr inbounds nuw i8, ptr %0, i64 28
  %6 = load i32, ptr %5, align 4
  %7 = icmp sgt i32 %6, 0
  br i1 %7, label %.preheader.lr.ph, label %._crit_edge20

.preheader.lr.ph:                                 ; preds = %4
  %8 = getelementptr inbounds nuw i8, ptr %0, i64 6
  %9 = getelementptr inbounds nuw i8, ptr %0, i64 20
  %10 = getelementptr inbounds nuw i8, ptr %0, i64 8
  %.pre = load i16, ptr %8, align 2
  br label %.preheader

.preheader:                                       ; preds = %.preheader.lr.ph, %._crit_edge
  %11 = phi i32 [ %6, %.preheader.lr.ph ], [ %34, %._crit_edge ]
  %12 = phi i16 [ %.pre, %.preheader.lr.ph ], [ %35, %._crit_edge ]
  %13 = phi i16 [ %.pre, %.preheader.lr.ph ], [ %36, %._crit_edge ]
  %.019 = phi ptr [ %1, %.preheader.lr.ph ], [ %40, %._crit_edge ]
  %.01518 = phi i32 [ 0, %.preheader.lr.ph ], [ %37, %._crit_edge ]
  %14 = icmp sgt i16 %13, 0
  br i1 %14, label %.lr.ph, label %._crit_edge

.lr.ph:                                           ; preds = %.preheader, %30
  %15 = phi i16 [ %31, %30 ], [ %12, %.preheader ]
  %indvars.iv = phi i64 [ %indvars.iv.next, %30 ], [ 0, %.preheader ]
  %16 = getelementptr inbounds i32, ptr %.019, i64 %indvars.iv
  %17 = load i32, ptr %16, align 4
  %18 = icmp sgt i32 %17, -1
  br i1 %18, label %19, label %30

19:                                               ; preds = %.lr.ph
  %20 = load i32, ptr %9, align 4
  %21 = icmp slt i32 %17, %20
  br i1 %21, label %22, label %26

22:                                               ; preds = %19
  %23 = zext nneg i32 %17 to i64
  %24 = getelementptr inbounds i32, ptr %2, i64 %23
  %25 = load i32, ptr %24, align 4
  br label %28

26:                                               ; preds = %19
  %27 = add nsw i32 %17, %3
  br label %28

28:                                               ; preds = %26, %22
  %29 = phi i32 [ %25, %22 ], [ %27, %26 ]
  store i32 %29, ptr %16, align 4
  %.pre22 = load i16, ptr %8, align 2
  br label %30

30:                                               ; preds = %.lr.ph, %28
  %31 = phi i16 [ %15, %.lr.ph ], [ %.pre22, %28 ]
  %indvars.iv.next = add nuw nsw i64 %indvars.iv, 1
  %32 = sext i16 %31 to i64
  %33 = icmp slt i64 %indvars.iv.next, %32
  br i1 %33, label %.lr.ph, label %._crit_edge.loopexit, !llvm.loop !170

._crit_edge.loopexit:                             ; preds = %30
  %.pre23 = load i32, ptr %5, align 4
  br label %._crit_edge

._crit_edge:                                      ; preds = %._crit_edge.loopexit, %.preheader
  %34 = phi i32 [ %.pre23, %._crit_edge.loopexit ], [ %11, %.preheader ]
  %35 = phi i16 [ %31, %._crit_edge.loopexit ], [ %12, %.preheader ]
  %36 = phi i16 [ %31, %._crit_edge.loopexit ], [ %13, %.preheader ]
  %37 = add nuw nsw i32 %.01518, 1
  %38 = load i32, ptr %10, align 8
  %39 = sext i32 %38 to i64
  %40 = getelementptr inbounds i32, ptr %.019, i64 %39
  %41 = icmp slt i32 %37, %34
  br i1 %41, label %.preheader, label %._crit_edge20, !llvm.loop !171

._crit_edge20:                                    ; preds = %._crit_edge, %4
  ret void
}